(dp1
S'monitor_grad'
p2
I00
sS'dropout_output'
p3
F0.5
sS'n_words'
p4
I10000
sS'start_epoch'
p5
I0
sS'dataset'
p6
S'text'
p7
sS'patience'
p8
I10
sS'skip_steps2'
p9
I-1
sS'hier_len'
p10
NsS'max_epochs'
p11
I5000
sS'dispFreq'
p12
I50
sS'newDumpFreq'
p13
I5000000
sS'self'
p14
NsS'hybrid'
p15
I00
sS'clip_c'
p16
F-1
sS'dim_proj'
p17
I1024
sS'saveto'
p18
S'model.npz'
p19
sS'start_iter'
p20
I0
sS'lastHiddenLayer'
p21
NsS'noise_std'
p22
F0
sS'batch_len_threshold'
p23
NsS'valid_batch_size'
p24
I16
sS'corpus'
p25
S'imdb.pkl'
p26
sS'reload_options'
p27
NsS'optimizer'
p28
S'adadelta'
p29
sS'validFreq'
p30
I2000
sS'dropout_input'
p31
F0.80000000000000004
sS'warm_LM'
p32
NsS'batch_size'
p33
I16
sS'encoder'
p34
S'lstm'
p35
sS'hierarchical'
p36
I00
sS'reload_model'
p37
S'winner/warmClassifier.npz'
p38
sS'lrate'
p39
F1
sS'truncate_grad'
p40
I-1
sS'decay_c'
p41
F-1
sS'encoder2'
p42
NsS'test_size'
p43
NsS'dim_word'
p44
I500
sS'unit_depth'
p45
I-1
sS'maxlen'
p46
NsS'skip_steps'
p47
I-1
sS'embedding'
p48
NsS'logFile'
p49
S'log2'
p50
sS'mean_pooling'
p51
I00
s.